target datalayout = "e-m:e-p270:32:32-p271:32:32-p272:64:64-i64:64-i128:128-f80:128-n8:16:32:64-S128"
target triple = "x86_64-pc-linux-gnu"

%struct.Fraig_ManStruct_t_ = type { ptr, ptr, ptr, ptr, ptr, ptr, ptr, ptr, ptr, i32, i32, i32, i32, i32, i32, i32, i32, i32, i32, i32, i32, i64, i32, i32, i32, i32, i32, ptr, ptr, ptr, ptr, ptr, i32, ptr, ptr, ptr, ptr, ptr, ptr, i32, ptr, ptr, ptr, ptr, i32, i32, i32, i32, i32, i32, i32, i32, i32, i32, i32, i32, i32, i32, i32, i32, i32, i32, i32, i64, i64, i64, i64, i64, i64, i64, i64, i64, i64, i64, i64 }
%struct.Fraig_NodeVecStruct_t_ = type { i32, i32, ptr }
%struct.Fraig_NodeStruct_t_ = type { i32, i32, i32, i32, i32, i32, i32, ptr, ptr, ptr, ptr, ptr, ptr, ptr, ptr, i32, i32, ptr, ptr, ptr, ptr, ptr, ptr, ptr }

; Function Attrs: nounwind uwtable
define ptr @Fraig_ManAllocCounterExample(ptr noundef %0) #0 {
  %2 = alloca ptr, align 8
  %3 = alloca ptr, align 8
  store ptr %0, ptr %2, align 8
  %4 = load ptr, ptr %2, align 8
  %5 = getelementptr inbounds %struct.Fraig_ManStruct_t_, ptr %4, i32 0, i32 0
  %6 = load ptr, ptr %5, align 8
  %7 = getelementptr inbounds %struct.Fraig_NodeVecStruct_t_, ptr %6, i32 0, i32 1
  %8 = load i32, ptr %7, align 4
  %9 = sext i32 %8 to i64
  %10 = mul i64 4, %9
  %11 = call noalias ptr @malloc(i64 noundef %10) #6
  store ptr %11, ptr %3, align 8
  %12 = load ptr, ptr %3, align 8
  %13 = load ptr, ptr %2, align 8
  %14 = getelementptr inbounds %struct.Fraig_ManStruct_t_, ptr %13, i32 0, i32 0
  %15 = load ptr, ptr %14, align 8
  %16 = getelementptr inbounds %struct.Fraig_NodeVecStruct_t_, ptr %15, i32 0, i32 1
  %17 = load i32, ptr %16, align 4
  %18 = sext i32 %17 to i64
  %19 = mul i64 4, %18
  call void @llvm.memset.p0.i64(ptr align 4 %12, i8 0, i64 %19, i1 false)
  %20 = load ptr, ptr %3, align 8
  ret ptr %20
}

; Function Attrs: nounwind uwtable
define ptr @Fraig_ManSaveCounterExample(ptr noundef %0, ptr noundef %1) #0 {
  %3 = alloca ptr, align 8
  %4 = alloca ptr, align 8
  %5 = alloca ptr, align 8
  %6 = alloca ptr, align 8
  %7 = alloca i32, align 4
  %8 = alloca i32, align 4
  %9 = alloca i32, align 4
  store ptr %0, ptr %4, align 8
  store ptr %1, ptr %5, align 8
  %10 = load ptr, ptr %5, align 8
  %11 = ptrtoint ptr %10 to i64
  %12 = and i64 %11, 1
  %13 = trunc i64 %12 to i32
  store i32 %13, ptr %9, align 4
  %14 = load i32, ptr %9, align 4
  %15 = icmp ne i32 %14, 0
  %16 = xor i1 %15, true
  %17 = zext i1 %16 to i32
  store i32 %17, ptr %9, align 4
  %18 = load ptr, ptr %4, align 8
  %19 = call ptr @Fraig_ManAllocCounterExample(ptr noundef %18)
  store ptr %19, ptr %6, align 8
  %20 = load ptr, ptr %4, align 8
  %21 = getelementptr inbounds %struct.Fraig_ManStruct_t_, ptr %20, i32 0, i32 3
  %22 = load ptr, ptr %21, align 8
  %23 = load ptr, ptr %5, align 8
  %24 = ptrtoint ptr %23 to i64
  %25 = and i64 %24, -2
  %26 = inttoptr i64 %25 to ptr
  %27 = load i32, ptr %9, align 4
  %28 = load ptr, ptr %4, align 8
  %29 = getelementptr inbounds %struct.Fraig_ManStruct_t_, ptr %28, i32 0, i32 9
  %30 = load i32, ptr %29, align 8
  %31 = call i32 @Fraig_FindFirstDiff(ptr noundef %22, ptr noundef %26, i32 noundef %27, i32 noundef %30, i32 noundef 1)
  store i32 %31, ptr %7, align 4
  %32 = load i32, ptr %7, align 4
  %33 = icmp sge i32 %32, 0
  br i1 %33, label %34, label %76

34:                                               ; preds = %2
  store i32 0, ptr %8, align 4
  br label %35

35:                                               ; preds = %71, %34
  %36 = load i32, ptr %8, align 4
  %37 = load ptr, ptr %4, align 8
  %38 = getelementptr inbounds %struct.Fraig_ManStruct_t_, ptr %37, i32 0, i32 0
  %39 = load ptr, ptr %38, align 8
  %40 = getelementptr inbounds %struct.Fraig_NodeVecStruct_t_, ptr %39, i32 0, i32 1
  %41 = load i32, ptr %40, align 4
  %42 = icmp slt i32 %36, %41
  br i1 %42, label %43, label %74

43:                                               ; preds = %35
  %44 = load ptr, ptr %4, align 8
  %45 = getelementptr inbounds %struct.Fraig_ManStruct_t_, ptr %44, i32 0, i32 0
  %46 = load ptr, ptr %45, align 8
  %47 = getelementptr inbounds %struct.Fraig_NodeVecStruct_t_, ptr %46, i32 0, i32 2
  %48 = load ptr, ptr %47, align 8
  %49 = load i32, ptr %8, align 4
  %50 = sext i32 %49 to i64
  %51 = getelementptr inbounds ptr, ptr %48, i64 %50
  %52 = load ptr, ptr %51, align 8
  %53 = getelementptr inbounds %struct.Fraig_NodeStruct_t_, ptr %52, i32 0, i32 17
  %54 = load ptr, ptr %53, align 8
  %55 = load i32, ptr %7, align 4
  %56 = ashr i32 %55, 5
  %57 = sext i32 %56 to i64
  %58 = getelementptr inbounds i32, ptr %54, i64 %57
  %59 = load i32, ptr %58, align 4
  %60 = load i32, ptr %7, align 4
  %61 = and i32 %60, 31
  %62 = shl i32 1, %61
  %63 = and i32 %59, %62
  %64 = icmp ugt i32 %63, 0
  br i1 %64, label %65, label %70

65:                                               ; preds = %43
  %66 = load ptr, ptr %6, align 8
  %67 = load i32, ptr %8, align 4
  %68 = sext i32 %67 to i64
  %69 = getelementptr inbounds i32, ptr %66, i64 %68
  store i32 1, ptr %69, align 4
  br label %70

70:                                               ; preds = %65, %43
  br label %71

71:                                               ; preds = %70
  %72 = load i32, ptr %8, align 4
  %73 = add nsw i32 %72, 1
  store i32 %73, ptr %8, align 4
  br label %35, !llvm.loop !33

74:                                               ; preds = %35
  %75 = load ptr, ptr %6, align 8
  store ptr %75, ptr %3, align 8
  br label %140

76:                                               ; preds = %2
  %77 = load ptr, ptr %4, align 8
  %78 = getelementptr inbounds %struct.Fraig_ManStruct_t_, ptr %77, i32 0, i32 3
  %79 = load ptr, ptr %78, align 8
  %80 = load ptr, ptr %5, align 8
  %81 = ptrtoint ptr %80 to i64
  %82 = and i64 %81, -2
  %83 = inttoptr i64 %82 to ptr
  %84 = load i32, ptr %9, align 4
  %85 = load ptr, ptr %4, align 8
  %86 = getelementptr inbounds %struct.Fraig_ManStruct_t_, ptr %85, i32 0, i32 24
  %87 = load i32, ptr %86, align 8
  %88 = call i32 @Fraig_FindFirstDiff(ptr noundef %79, ptr noundef %83, i32 noundef %84, i32 noundef %87, i32 noundef 0)
  store i32 %88, ptr %7, align 4
  %89 = load i32, ptr %7, align 4
  %90 = icmp sge i32 %89, 0
  br i1 %90, label %91, label %133

91:                                               ; preds = %76
  store i32 0, ptr %8, align 4
  br label %92

92:                                               ; preds = %128, %91
  %93 = load i32, ptr %8, align 4
  %94 = load ptr, ptr %4, align 8
  %95 = getelementptr inbounds %struct.Fraig_ManStruct_t_, ptr %94, i32 0, i32 0
  %96 = load ptr, ptr %95, align 8
  %97 = getelementptr inbounds %struct.Fraig_NodeVecStruct_t_, ptr %96, i32 0, i32 1
  %98 = load i32, ptr %97, align 4
  %99 = icmp slt i32 %93, %98
  br i1 %99, label %100, label %131

100:                                              ; preds = %92
  %101 = load ptr, ptr %4, align 8
  %102 = getelementptr inbounds %struct.Fraig_ManStruct_t_, ptr %101, i32 0, i32 0
  %103 = load ptr, ptr %102, align 8
  %104 = getelementptr inbounds %struct.Fraig_NodeVecStruct_t_, ptr %103, i32 0, i32 2
  %105 = load ptr, ptr %104, align 8
  %106 = load i32, ptr %8, align 4
  %107 = sext i32 %106 to i64
  %108 = getelementptr inbounds ptr, ptr %105, i64 %107
  %109 = load ptr, ptr %108, align 8
  %110 = getelementptr inbounds %struct.Fraig_NodeStruct_t_, ptr %109, i32 0, i32 18
  %111 = load ptr, ptr %110, align 8
  %112 = load i32, ptr %7, align 4
  %113 = ashr i32 %112, 5
  %114 = sext i32 %113 to i64
  %115 = getelementptr inbounds i32, ptr %111, i64 %114
  %116 = load i32, ptr %115, align 4
  %117 = load i32, ptr %7, align 4
  %118 = and i32 %117, 31
  %119 = shl i32 1, %118
  %120 = and i32 %116, %119
  %121 = icmp ugt i32 %120, 0
  br i1 %121, label %122, label %127

122:                                              ; preds = %100
  %123 = load ptr, ptr %6, align 8
  %124 = load i32, ptr %8, align 4
  %125 = sext i32 %124 to i64
  %126 = getelementptr inbounds i32, ptr %123, i64 %125
  store i32 1, ptr %126, align 4
  br label %127

127:                                              ; preds = %122, %100
  br label %128

128:                                              ; preds = %127
  %129 = load i32, ptr %8, align 4
  %130 = add nsw i32 %129, 1
  store i32 %130, ptr %8, align 4
  br label %92, !llvm.loop !34

131:                                              ; preds = %92
  %132 = load ptr, ptr %6, align 8
  store ptr %132, ptr %3, align 8
  br label %140

133:                                              ; preds = %76
  %134 = load ptr, ptr %6, align 8
  %135 = icmp ne ptr %134, null
  br i1 %135, label %136, label %138

136:                                              ; preds = %133
  %137 = load ptr, ptr %6, align 8
  call void @free(ptr noundef %137) #7
  store ptr null, ptr %6, align 8
  br label %139

138:                                              ; preds = %133
  br label %139

139:                                              ; preds = %138, %136
  store ptr null, ptr %3, align 8
  br label %140

140:                                              ; preds = %139, %131, %74
  %141 = load ptr, ptr %3, align 8
  ret ptr %141
}