; Function Attrs: nounwind uwtable
define noalias noundef ptr @Fraig_ManSaveCounterExample(ptr noundef readonly captures(none) %0, ptr noundef %1) local_unnamed_addr #0 {
  %3 = ptrtoint ptr %1 to i64
  %4 = trunc i64 %3 to i32
  %5 = and i32 %4, 1
  %6 = xor i32 %5, 1
  %7 = load ptr, ptr %0, align 8
  %8 = getelementptr inbounds nuw i8, ptr %7, i64 4
  %9 = load i32, ptr %8, align 4
  %10 = sext i32 %9 to i64
  %11 = shl nsw i64 %10, 2
  %calloc.i = tail call noalias noundef ptr @calloc(i64 1, i64 %11)
  %12 = getelementptr inbounds nuw i8, ptr %0, i64 24
  %13 = load ptr, ptr %12, align 8
  %14 = and i64 %3, -2
  %15 = inttoptr i64 %14 to ptr
  %16 = getelementptr inbounds nuw i8, ptr %0, i64 72
  %17 = load i32, ptr %16, align 8
  %18 = tail call i32 @Fraig_FindFirstDiff(ptr noundef %13, ptr noundef %15, i32 noundef %6, i32 noundef %17, i32 noundef 1) #12
  %19 = icmp sgt i32 %18, -1
  br i1 %19, label %.preheader, label %41

.preheader:                                       ; preds = %2
  %20 = load ptr, ptr %0, align 8
  %21 = getelementptr inbounds nuw i8, ptr %20, i64 4
  %22 = load i32, ptr %21, align 4
  %23 = icmp sgt i32 %22, 0
  br i1 %23, label %.lr.ph45, label %.loopexit

.lr.ph45:                                         ; preds = %.preheader
  %24 = getelementptr inbounds nuw i8, ptr %20, i64 8
  %25 = load ptr, ptr %24, align 8
  %26 = lshr i32 %18, 5
  %27 = zext nneg i32 %26 to i64
  %28 = and i32 %18, 31
  %29 = shl nuw i32 1, %28
  %wide.trip.count51 = zext nneg i32 %22 to i64
  br label %30

30:                                               ; preds = %.lr.ph45, %40
  %indvars.iv48 = phi i64 [ 0, %.lr.ph45 ], [ %indvars.iv.next49, %40 ]
  %31 = getelementptr inbounds nuw ptr, ptr %25, i64 %indvars.iv48
  %32 = load ptr, ptr %31, align 8
  %33 = getelementptr inbounds nuw i8, ptr %32, i64 104
  %34 = load ptr, ptr %33, align 8
  %35 = getelementptr inbounds nuw i32, ptr %34, i64 %27
  %36 = load i32, ptr %35, align 4
  %37 = and i32 %36, %29
  %.not40 = icmp eq i32 %37, 0
  br i1 %.not40, label %40, label %38

38:                                               ; preds = %30
  %39 = getelementptr inbounds nuw i32, ptr %calloc.i, i64 %indvars.iv48
  store i32 1, ptr %39, align 4
  br label %40

40:                                               ; preds = %30, %38
  %indvars.iv.next49 = add nuw nsw i64 %indvars.iv48, 1
  %exitcond52.not = icmp eq i64 %indvars.iv.next49, %wide.trip.count51
  br i1 %exitcond52.not, label %.loopexit, label %30, !llvm.loop !52

41:                                               ; preds = %2
  %42 = load ptr, ptr %12, align 8
  %43 = getelementptr inbounds nuw i8, ptr %0, i64 136
  %44 = load i32, ptr %43, align 8
  %45 = tail call i32 @Fraig_FindFirstDiff(ptr noundef %42, ptr noundef %15, i32 noundef %6, i32 noundef %44, i32 noundef 0) #12
  %46 = icmp sgt i32 %45, -1
  br i1 %46, label %.preheader41, label %68

.preheader41:                                     ; preds = %41
  %47 = load ptr, ptr %0, align 8
  %48 = getelementptr inbounds nuw i8, ptr %47, i64 4
  %49 = load i32, ptr %48, align 4
  %50 = icmp sgt i32 %49, 0
  br i1 %50, label %.lr.ph, label %.loopexit

.lr.ph:                                           ; preds = %.preheader41
  %51 = getelementptr inbounds nuw i8, ptr %47, i64 8
  %52 = load ptr, ptr %51, align 8
  %53 = lshr i32 %45, 5
  %54 = zext nneg i32 %53 to i64
  %55 = and i32 %45, 31
  %56 = shl nuw i32 1, %55
  %wide.trip.count = zext nneg i32 %49 to i64
  br label %57

57:                                               ; preds = %.lr.ph, %67
  %indvars.iv = phi i64 [ 0, %.lr.ph ], [ %indvars.iv.next, %67 ]
  %58 = getelementptr inbounds nuw ptr, ptr %52, i64 %indvars.iv
  %59 = load ptr, ptr %58, align 8
  %60 = getelementptr inbounds nuw i8, ptr %59, i64 112
  %61 = load ptr, ptr %60, align 8
  %62 = getelementptr inbounds nuw i32, ptr %61, i64 %54
  %63 = load i32, ptr %62, align 4
  %64 = and i32 %63, %56
  %.not39 = icmp eq i32 %64, 0
  br i1 %.not39, label %67, label %65

65:                                               ; preds = %57
  %66 = getelementptr inbounds nuw i32, ptr %calloc.i, i64 %indvars.iv
  store i32 1, ptr %66, align 4
  br label %67

67:                                               ; preds = %57, %65
  %indvars.iv.next = add nuw nsw i64 %indvars.iv, 1
  %exitcond.not = icmp eq i64 %indvars.iv.next, %wide.trip.count
  br i1 %exitcond.not, label %.loopexit, label %57, !llvm.loop !53

68:                                               ; preds = %41
  %.not = icmp eq ptr %calloc.i, null
  br i1 %.not, label %.loopexit, label %69

69:                                               ; preds = %68
  tail call void @free(ptr noundef nonnull %calloc.i) #12
  br label %.loopexit

.loopexit:                                        ; preds = %67, %40, %.preheader41, %.preheader, %69, %68
  %.035 = phi ptr [ null, %68 ], [ null, %69 ], [ %calloc.i, %.preheader ], [ %calloc.i, %.preheader41 ], [ %calloc.i, %40 ], [ %calloc.i, %67 ]
  ret ptr %.035
}